; Function Attrs: mustprogress uwtable
define void @_ZN6duckdb23ParquetEncryptionConfig6CreateERNS_13ClientContextERKNS_5ValueE(ptr dead_on_unwind noalias writable writeonly sret(%"class.duckdb::shared_ptr.120") align 8 captures(none) %0, ptr noundef nonnull align 8 dereferenceable(648) %1, ptr noundef nonnull align 8 dereferenceable(64) %2) local_unnamed_addr #0 align 2 personality ptr @__gxx_personality_v0 {
  %4 = tail call noalias noundef nonnull dereferenceable(96) ptr @_Znwm(i64 noundef 96) #30
  invoke void @_ZN6duckdb23ParquetEncryptionConfigC1ERNS_13ClientContextERKNS_5ValueE(ptr noundef nonnull align 8 dereferenceable(96) %4, ptr noundef nonnull align 8 dereferenceable(648) %1, ptr noundef nonnull align 8 dereferenceable(64) %2)
          to label %5 unwind label %21

5:                                                ; preds = %3
  store ptr %4, ptr %0, align 8, !tbaa !98
  %6 = getelementptr inbounds nuw i8, ptr %0, i64 8
  store ptr null, ptr %6, align 8, !tbaa !21
  %7 = invoke noalias noundef nonnull dereferenceable(24) ptr @_Znwm(i64 noundef 24) #30
          to label %_ZNSt14__shared_countILN9__gnu_cxx12_Lock_policyE2EEC2IPN6duckdb23ParquetEncryptionConfigEEET_.exit unwind label %8

8:                                                ; preds = %5
  %9 = landingpad { ptr, i32 }
          catch ptr null
  %10 = extractvalue { ptr, i32 } %9, 0
  %11 = tail call ptr @__cxa_begin_catch(ptr %10) #28
  tail call void @_ZN6duckdb23ParquetEncryptionConfigD2Ev(ptr noundef nonnull align 8 dereferenceable(96) %4) #28
  tail call void @_ZdlPv(ptr noundef nonnull %4) #29
  invoke void @__cxa_rethrow() #31
          to label %17 unwind label %12

12:                                               ; preds = %8
  %13 = landingpad { ptr, i32 }
          cleanup
  invoke void @__cxa_end_catch()
          to label %common.resume unwind label %14

common.resume:                                    ; preds = %12, %21
  %common.resume.op = phi { ptr, i32 } [ %22, %21 ], [ %13, %12 ]
  resume { ptr, i32 } %common.resume.op

14:                                               ; preds = %12
  %15 = landingpad { ptr, i32 }
          catch ptr null
  %16 = extractvalue { ptr, i32 } %15, 0
  tail call void @__clang_call_terminate(ptr %16) #32
  unreachable

17:                                               ; preds = %8
  unreachable

_ZNSt14__shared_countILN9__gnu_cxx12_Lock_policyE2EEC2IPN6duckdb23ParquetEncryptionConfigEEET_.exit: ; preds = %5
  %18 = getelementptr inbounds nuw i8, ptr %7, i64 8
  store i32 1, ptr %18, align 8, !tbaa !22
  %19 = getelementptr inbounds nuw i8, ptr %7, i64 12
  store i32 1, ptr %19, align 4, !tbaa !25
  store ptr getelementptr inbounds nuw inrange(-16, 40) (i8, ptr @_ZTVSt15_Sp_counted_ptrIPN6duckdb23ParquetEncryptionConfigELN9__gnu_cxx12_Lock_policyE2EE, i64 16), ptr %7, align 8, !tbaa !26
  %20 = getelementptr inbounds nuw i8, ptr %7, i64 16
  store ptr %4, ptr %20, align 8, !tbaa !101
  store ptr %7, ptr %6, align 8, !tbaa !21
  ret void

21:                                               ; preds = %3
  %22 = landingpad { ptr, i32 }
          cleanup
  tail call void @_ZdlPv(ptr noundef nonnull %4) #29
  br label %common.resume
}